; Function Attrs: mustprogress uwtable
define void @_ZN8QuantLib15FdmKlugeExtOUOp7setTimeEdd(ptr nocapture noundef nonnull readonly align 8 dereferenceable(304) %this, double noundef %t1, double noundef %t2) unnamed_addr #6 align 2 {
entry:
  %ouOp_ = getelementptr inbounds nuw i8, ptr %this, i64 112
  %0 = load ptr, ptr %ouOp_, align 8, !tbaa !74
  %cmp.not.i = icmp eq ptr %0, null
  br i1 %cmp.not.i, label %cond.false.i, label %_ZNK5boost10shared_ptrIN8QuantLib30FdmExtendedOrnsteinUhlenbeckOpEEptEv.exit, !prof !47

cond.false.i:                                     ; preds = %entry
  tail call void @_ZN5boost16assertion_failedEPKcS1_S1_l(ptr noundef nonnull @.str.16, ptr noundef nonnull @__PRETTY_FUNCTION__._ZNK5boost10shared_ptrIN8QuantLib30FdmExtendedOrnsteinUhlenbeckOpEEptEv, ptr noundef nonnull @.str.17, i64 noundef 784)
  %.pre.i = load ptr, ptr %ouOp_, align 8, !tbaa !74
  br label %_ZNK5boost10shared_ptrIN8QuantLib30FdmExtendedOrnsteinUhlenbeckOpEEptEv.exit

_ZNK5boost10shared_ptrIN8QuantLib30FdmExtendedOrnsteinUhlenbeckOpEEptEv.exit: ; preds = %entry, %cond.false.i
  %1 = phi ptr [ %0, %entry ], [ %.pre.i, %cond.false.i ]
  %vtable = load ptr, ptr %1, align 8, !tbaa !28
  %vfn = getelementptr inbounds i8, ptr %vtable, i64 40
  %2 = load ptr, ptr %vfn, align 8
  tail call void %2(ptr noundef nonnull align 8 dereferenceable(344) %1, double noundef %t1, double noundef %t2)
  %klugeOp_ = getelementptr inbounds nuw i8, ptr %this, i64 96
  %3 = load ptr, ptr %klugeOp_, align 8, !tbaa !58
  %cmp.not.i3 = icmp eq ptr %3, null
  br i1 %cmp.not.i3, label %cond.false.i4, label %_ZNK5boost10shared_ptrIN8QuantLib14FdmExtOUJumpOpEEptEv.exit, !prof !47

cond.false.i4:                                    ; preds = %_ZNK5boost10shared_ptrIN8QuantLib30FdmExtendedOrnsteinUhlenbeckOpEEptEv.exit
  tail call void @_ZN5boost16assertion_failedEPKcS1_S1_l(ptr noundef nonnull @.str.16, ptr noundef nonnull @__PRETTY_FUNCTION__._ZNK5boost10shared_ptrIN8QuantLib14FdmExtOUJumpOpEEptEv, ptr noundef nonnull @.str.17, i64 noundef 784)
  %.pre.i5 = load ptr, ptr %klugeOp_, align 8, !tbaa !58
  br label %_ZNK5boost10shared_ptrIN8QuantLib14FdmExtOUJumpOpEEptEv.exit

_ZNK5boost10shared_ptrIN8QuantLib14FdmExtOUJumpOpEEptEv.exit: ; preds = %_ZNK5boost10shared_ptrIN8QuantLib30FdmExtendedOrnsteinUhlenbeckOpEEptEv.exit, %cond.false.i4
  %4 = phi ptr [ %3, %_ZNK5boost10shared_ptrIN8QuantLib30FdmExtendedOrnsteinUhlenbeckOpEEptEv.exit ], [ %.pre.i5, %cond.false.i4 ]
  %vtable3 = load ptr, ptr %4, align 8, !tbaa !28
  %vfn4 = getelementptr inbounds i8, ptr %vtable3, i64 40
  %5 = load ptr, ptr %vfn4, align 8
  tail call void %5(ptr noundef nonnull align 8 dereferenceable(336) %4, double noundef %t1, double noundef %t2)
  ret void
}